(dp1
S'group_id'
p2
S'INT, INDEX group_id__idx (group_id), FOREIGN KEY (group_id) REFERENCES grupos(id) ON DELETE CASCADE'
p3
sS'user_id'
p4
S'INT, INDEX user_id__idx (user_id), FOREIGN KEY (user_id) REFERENCES usuarios(id) ON DELETE CASCADE'
p5
sS'id'
p6
S'INT AUTO_INCREMENT NOT NULL'
p7
s.