(dp1
S'username'
p2
S'VARCHAR(128) UNIQUE'
p3
sS'first_name'
p4
S'VARCHAR(128)'
p5
sS'registration_key'
p6
S'VARCHAR(255)'
p7
sS'registration_id'
p8
S'VARCHAR(255)'
p9
sS'email'
p10
S'VARCHAR(128)'
p11
sS'reset_password_key'
p12
S'VARCHAR(255)'
p13
sS'grupo'
p14
S'INT, INDEX grupo__idx (grupo), FOREIGN KEY (grupo) REFERENCES grupos(id) ON DELETE CASCADE'
p15
sS'password'
p16
S'VARCHAR(255)'
p17
sS'id'
p18
S'INT AUTO_INCREMENT NOT NULL'
p19
s.