(dp1
S'username'
p2
S'CHAR(128) UNIQUE'
p3
sS'first_name'
p4
S'CHAR(128)'
p5
sS'registration_key'
p6
S'CHAR(512)'
p7
sS'registration_id'
p8
S'CHAR(512)'
p9
sS'email'
p10
S'CHAR(128)'
p11
sS'reset_password_key'
p12
S'CHAR(512)'
p13
sS'grupo'
p14
S'INTEGER REFERENCES grupos(id) ON DELETE CASCADE'
p15
sS'password'
p16
S'CHAR(512)'
p17
sS'id'
p18
S'INTEGER PRIMARY KEY AUTOINCREMENT'
p19
s.